; Function Attrs: mustprogress uwtable
define void @_ZN3gmx8internal27BasicAverageHistogramModule11pointsAddedERKNS_23AnalysisDataPointSetRefE(ptr nocapture noundef nonnull readonly align 8 dereferenceable(152) %0, ptr noundef nonnull align 8 dereferenceable(40) %1) unnamed_addr #3 align 2 {
  %3 = getelementptr inbounds i8, ptr %0, i64 128
  %4 = getelementptr inbounds i8, ptr %1, i64 12
  %5 = load i32, ptr %4, align 4
  %6 = sext i32 %5 to i64
  %7 = load ptr, ptr %3, align 8
  %8 = getelementptr inbounds %"class.gmx::AnalysisDataFrameAverager", ptr %7, i64 %6
  tail call void @_ZN3gmx25AnalysisDataFrameAverager9addPointsERKNS_23AnalysisDataPointSetRefE(ptr noundef nonnull align 8 dereferenceable(25) %8, ptr noundef nonnull align 8 dereferenceable(40) %1)
  ret void
}